; Function Attrs: mustprogress uwtable
define hidden noundef zeroext i1 @_Z12is_hint_headP4exprR10ptr_bufferI3varLj16EE(ptr noundef readonly captures(address) %0, ptr noundef nonnull align 8 captures(address) dereferenceable(144) %1) local_unnamed_addr #3 {
  %3 = getelementptr inbounds nuw i8, ptr %0, i64 4
  %4 = load i32, ptr %3, align 4
  %5 = and i32 %4, 65535
  %6 = icmp eq i32 %5, 0
  br i1 %6, label %7, label %57

7:                                                ; preds = %2
  %8 = getelementptr inbounds nuw i8, ptr %0, i64 16
  %9 = load ptr, ptr %8, align 8, !tbaa !50
  %10 = getelementptr inbounds nuw i8, ptr %9, i64 24
  %11 = load ptr, ptr %10, align 8, !tbaa !55
  %.not.i = icmp eq ptr %11, null
  br i1 %.not.i, label %_ZNK3app13get_family_idEv.exit.thread, label %_ZNK9func_decl14is_associativeEv.exit

_ZNK9func_decl14is_associativeEv.exit:            ; preds = %7
  %12 = getelementptr inbounds nuw i8, ptr %11, i64 17
  %13 = load i16, ptr %12, align 1
  %14 = trunc i16 %13 to i1
  %15 = and i16 %13, 2
  %16 = icmp ne i16 %15, 0
  %17 = and i1 %16, %14
  br i1 %17, label %57, label %_ZNK3app13get_family_idEv.exit

_ZNK3app13get_family_idEv.exit:                   ; preds = %_ZNK9func_decl14is_associativeEv.exit
  %18 = load i32, ptr %11, align 8, !tbaa !60
  %.not = icmp eq i32 %18, -1
  br i1 %.not, label %_ZNK3app13get_family_idEv.exit.thread, label %57

_ZNK3app13get_family_idEv.exit.thread:            ; preds = %7, %_ZNK3app13get_family_idEv.exit
  %19 = getelementptr inbounds nuw i8, ptr %0, i64 24
  %20 = load i32, ptr %19, align 8, !tbaa !79
  %21 = zext i32 %20 to i64
  %.idx = shl nuw nsw i64 %21, 3
  %22 = getelementptr inbounds nuw i8, ptr %0, i64 %.idx
  %.ptr21 = getelementptr inbounds nuw i8, ptr %22, i64 32
  %.not1619 = icmp eq i32 %20, 0
  br i1 %.not1619, label %._crit_edge, label %.lr.ph

.lr.ph:                                           ; preds = %_ZNK3app13get_family_idEv.exit.thread
  %.ptr = getelementptr inbounds nuw i8, ptr %0, i64 32
  %23 = getelementptr inbounds nuw i8, ptr %1, i64 8
  %24 = getelementptr inbounds nuw i8, ptr %1, i64 12
  %25 = getelementptr inbounds nuw i8, ptr %1, i64 16
  br label %29

._crit_edge:                                      ; preds = %55, %_ZNK3app13get_family_idEv.exit.thread
  %26 = getelementptr inbounds nuw i8, ptr %1, i64 8
  %27 = load i32, ptr %26, align 8, !tbaa !204
  %28 = icmp ne i32 %27, 0
  br label %57

29:                                               ; preds = %.lr.ph, %55
  %.01520 = phi ptr [ %.ptr, %.lr.ph ], [ %56, %55 ]
  %30 = load ptr, ptr %.01520, align 8, !tbaa !73
  %31 = getelementptr inbounds nuw i8, ptr %30, i64 4
  %32 = load i32, ptr %31, align 4
  %33 = and i32 %32, 65535
  %34 = icmp eq i32 %33, 1
  br i1 %34, label %35, label %55

35:                                               ; preds = %29
  %36 = load i32, ptr %23, align 8, !tbaa !204
  %37 = load i32, ptr %24, align 4, !tbaa !207
  %.not.i17 = icmp ult i32 %36, %37
  br i1 %.not.i17, label %._crit_edge.i, label %38

._crit_edge.i:                                    ; preds = %35
  %.pre.i = load ptr, ptr %1, align 8, !tbaa !208
  br label %_ZN6bufferIP3varLb0ELj16EE9push_backEOS1_.exit

38:                                               ; preds = %35
  %39 = shl i32 %37, 1
  %40 = zext i32 %39 to i64
  %41 = shl nuw nsw i64 %40, 3
  %42 = tail call noalias noundef ptr @_ZN6memory8allocateEm(i64 noundef %41)
  %43 = load i32, ptr %23, align 8, !tbaa !204
  %.not.i.i = icmp eq i32 %43, 0
  %.pre.i.i = load ptr, ptr %1, align 8, !tbaa !208
  br i1 %.not.i.i, label %._crit_edge.i.i, label %.lr.ph.i.i

.lr.ph.i.i:                                       ; preds = %38
  %wide.trip.count.i.i = zext i32 %43 to i64
  br label %46

._crit_edge.i.i:                                  ; preds = %46, %38
  %.not.i.i.i = icmp eq ptr %.pre.i.i, %25
  %44 = icmp eq ptr %.pre.i.i, null
  %or.cond.i.i.i = or i1 %.not.i.i.i, %44
  br i1 %or.cond.i.i.i, label %_ZN6bufferIP3varLb0ELj16EE6expandEv.exit.i, label %45

45:                                               ; preds = %._crit_edge.i.i
  tail call void @_ZN6memory10deallocateEPv(ptr noundef nonnull %.pre.i.i)
  %.pre2.pre.i = load i32, ptr %23, align 8, !tbaa !204
  br label %_ZN6bufferIP3varLb0ELj16EE6expandEv.exit.i

46:                                               ; preds = %46, %.lr.ph.i.i
  %indvars.iv.i.i = phi i64 [ 0, %.lr.ph.i.i ], [ %indvars.iv.next.i.i, %46 ]
  %47 = getelementptr inbounds nuw ptr, ptr %42, i64 %indvars.iv.i.i
  %48 = getelementptr inbounds nuw ptr, ptr %.pre.i.i, i64 %indvars.iv.i.i
  %49 = load ptr, ptr %48, align 8, !tbaa !209
  store ptr %49, ptr %47, align 8, !tbaa !209
  %indvars.iv.next.i.i = add nuw nsw i64 %indvars.iv.i.i, 1
  %exitcond.not.i.i = icmp eq i64 %indvars.iv.next.i.i, %wide.trip.count.i.i
  br i1 %exitcond.not.i.i, label %._crit_edge.i.i, label %46, !llvm.loop !210

_ZN6bufferIP3varLb0ELj16EE6expandEv.exit.i:       ; preds = %45, %._crit_edge.i.i
  %.pre2.i = phi i32 [ %43, %._crit_edge.i.i ], [ %.pre2.pre.i, %45 ]
  store ptr %42, ptr %1, align 8, !tbaa !208
  store i32 %39, ptr %24, align 4, !tbaa !207
  br label %_ZN6bufferIP3varLb0ELj16EE9push_backEOS1_.exit

_ZN6bufferIP3varLb0ELj16EE9push_backEOS1_.exit:   ; preds = %._crit_edge.i, %_ZN6bufferIP3varLb0ELj16EE6expandEv.exit.i
  %50 = phi i32 [ %36, %._crit_edge.i ], [ %.pre2.i, %_ZN6bufferIP3varLb0ELj16EE6expandEv.exit.i ]
  %51 = phi ptr [ %.pre.i, %._crit_edge.i ], [ %42, %_ZN6bufferIP3varLb0ELj16EE6expandEv.exit.i ]
  %52 = zext i32 %50 to i64
  %53 = getelementptr inbounds nuw ptr, ptr %51, i64 %52
  store ptr %30, ptr %53, align 8, !tbaa !209
  %54 = add i32 %50, 1
  store i32 %54, ptr %23, align 8, !tbaa !204
  br label %55

55:                                               ; preds = %_ZN6bufferIP3varLb0ELj16EE9push_backEOS1_.exit, %29
  %56 = getelementptr inbounds nuw i8, ptr %.01520, i64 8
  %.not16 = icmp eq ptr %56, %.ptr21
  br i1 %.not16, label %._crit_edge, label %29

57:                                               ; preds = %_ZNK9func_decl14is_associativeEv.exit, %_ZNK3app13get_family_idEv.exit, %2, %._crit_edge
  %.0 = phi i1 [ %28, %._crit_edge ], [ false, %2 ], [ false, %_ZNK3app13get_family_idEv.exit ], [ false, %_ZNK9func_decl14is_associativeEv.exit ]
  ret i1 %.0
}